target datalayout = "e-m:e-p270:32:32-p271:32:32-p272:64:64-i64:64-i128:128-f80:128-n8:16:32:64-S128"
target triple = "x86_64-pc-linux-gnu"

%struct.quic_fifd_st = type { ptr, ptr, ptr, ptr, ptr, ptr, ptr, ptr, ptr, ptr, ptr, ptr, ptr }

; Function Attrs: nounwind uwtable
define i32 @ossl_quic_fifd_init(ptr noundef %0, ptr noundef %1, ptr noundef %2, ptr noundef %3, ptr noundef %4, ptr noundef %5, ptr noundef %6, ptr noundef %7, ptr noundef %8, ptr noundef %9, ptr noundef %10, ptr noundef %11, ptr noundef %12, ptr noundef %13) #0 {
  %15 = alloca i32, align 4
  %16 = alloca ptr, align 8
  %17 = alloca ptr, align 8
  %18 = alloca ptr, align 8
  %19 = alloca ptr, align 8
  %20 = alloca ptr, align 8
  %21 = alloca ptr, align 8
  %22 = alloca ptr, align 8
  %23 = alloca ptr, align 8
  %24 = alloca ptr, align 8
  %25 = alloca ptr, align 8
  %26 = alloca ptr, align 8
  %27 = alloca ptr, align 8
  %28 = alloca ptr, align 8
  %29 = alloca ptr, align 8
  store ptr %0, ptr %16, align 8, !tbaa !3
  store ptr %1, ptr %17, align 8, !tbaa !8
  store ptr %2, ptr %18, align 8, !tbaa !10
  store ptr %3, ptr %19, align 8, !tbaa !12
  store ptr %4, ptr %20, align 8, !tbaa !14
  store ptr %5, ptr %21, align 8, !tbaa !14
  store ptr %6, ptr %22, align 8, !tbaa !14
  store ptr %7, ptr %23, align 8, !tbaa !14
  store ptr %8, ptr %24, align 8, !tbaa !14
  store ptr %9, ptr %25, align 8, !tbaa !14
  store ptr %10, ptr %26, align 8, !tbaa !14
  store ptr %11, ptr %27, align 8, !tbaa !14
  store ptr %12, ptr %28, align 8, !tbaa !14
  store ptr %13, ptr %29, align 8, !tbaa !14
  %30 = load ptr, ptr %17, align 8, !tbaa !8
  %31 = icmp eq ptr %30, null
  br i1 %31, label %44, label %32

32:                                               ; preds = %14
  %33 = load ptr, ptr %18, align 8, !tbaa !10
  %34 = icmp eq ptr %33, null
  br i1 %34, label %44, label %35

35:                                               ; preds = %32
  %36 = load ptr, ptr %19, align 8, !tbaa !12
  %37 = icmp eq ptr %36, null
  br i1 %37, label %44, label %38

38:                                               ; preds = %35
  %39 = load ptr, ptr %20, align 8, !tbaa !14
  %40 = icmp eq ptr %39, null
  br i1 %40, label %44, label %41

41:                                               ; preds = %38
  %42 = load ptr, ptr %22, align 8, !tbaa !14
  %43 = icmp eq ptr %42, null
  br i1 %43, label %44, label %45

44:                                               ; preds = %41, %38, %35, %32, %14
  store i32 0, ptr %15, align 4
  br label %85

45:                                               ; preds = %41
  %46 = load ptr, ptr %17, align 8, !tbaa !8
  %47 = load ptr, ptr %16, align 8, !tbaa !3
  %48 = getelementptr inbounds nuw %struct.quic_fifd_st, ptr %47, i32 0, i32 0
  store ptr %46, ptr %48, align 8, !tbaa !15
  %49 = load ptr, ptr %18, align 8, !tbaa !10
  %50 = load ptr, ptr %16, align 8, !tbaa !3
  %51 = getelementptr inbounds nuw %struct.quic_fifd_st, ptr %50, i32 0, i32 1
  store ptr %49, ptr %51, align 8, !tbaa !17
  %52 = load ptr, ptr %19, align 8, !tbaa !12
  %53 = load ptr, ptr %16, align 8, !tbaa !3
  %54 = getelementptr inbounds nuw %struct.quic_fifd_st, ptr %53, i32 0, i32 2
  store ptr %52, ptr %54, align 8, !tbaa !18
  %55 = load ptr, ptr %20, align 8, !tbaa !14
  %56 = load ptr, ptr %16, align 8, !tbaa !3
  %57 = getelementptr inbounds nuw %struct.quic_fifd_st, ptr %56, i32 0, i32 3
  store ptr %55, ptr %57, align 8, !tbaa !19
  %58 = load ptr, ptr %21, align 8, !tbaa !14
  %59 = load ptr, ptr %16, align 8, !tbaa !3
  %60 = getelementptr inbounds nuw %struct.quic_fifd_st, ptr %59, i32 0, i32 4
  store ptr %58, ptr %60, align 8, !tbaa !20
  %61 = load ptr, ptr %22, align 8, !tbaa !14
  %62 = load ptr, ptr %16, align 8, !tbaa !3
  %63 = getelementptr inbounds nuw %struct.quic_fifd_st, ptr %62, i32 0, i32 5
  store ptr %61, ptr %63, align 8, !tbaa !21
  %64 = load ptr, ptr %23, align 8, !tbaa !14
  %65 = load ptr, ptr %16, align 8, !tbaa !3
  %66 = getelementptr inbounds nuw %struct.quic_fifd_st, ptr %65, i32 0, i32 6
  store ptr %64, ptr %66, align 8, !tbaa !22
  %67 = load ptr, ptr %24, align 8, !tbaa !14
  %68 = load ptr, ptr %16, align 8, !tbaa !3
  %69 = getelementptr inbounds nuw %struct.quic_fifd_st, ptr %68, i32 0, i32 7
  store ptr %67, ptr %69, align 8, !tbaa !23
  %70 = load ptr, ptr %25, align 8, !tbaa !14
  %71 = load ptr, ptr %16, align 8, !tbaa !3
  %72 = getelementptr inbounds nuw %struct.quic_fifd_st, ptr %71, i32 0, i32 8
  store ptr %70, ptr %72, align 8, !tbaa !24
  %73 = load ptr, ptr %26, align 8, !tbaa !14
  %74 = load ptr, ptr %16, align 8, !tbaa !3
  %75 = getelementptr inbounds nuw %struct.quic_fifd_st, ptr %74, i32 0, i32 9
  store ptr %73, ptr %75, align 8, !tbaa !25
  %76 = load ptr, ptr %27, align 8, !tbaa !14
  %77 = load ptr, ptr %16, align 8, !tbaa !3
  %78 = getelementptr inbounds nuw %struct.quic_fifd_st, ptr %77, i32 0, i32 10
  store ptr %76, ptr %78, align 8, !tbaa !26
  %79 = load ptr, ptr %28, align 8, !tbaa !14
  %80 = load ptr, ptr %16, align 8, !tbaa !3
  %81 = getelementptr inbounds nuw %struct.quic_fifd_st, ptr %80, i32 0, i32 11
  store ptr %79, ptr %81, align 8, !tbaa !27
  %82 = load ptr, ptr %29, align 8, !tbaa !14
  %83 = load ptr, ptr %16, align 8, !tbaa !3
  %84 = getelementptr inbounds nuw %struct.quic_fifd_st, ptr %83, i32 0, i32 12
  store ptr %82, ptr %84, align 8, !tbaa !28
  store i32 1, ptr %15, align 4
  br label %85

85:                                               ; preds = %45, %44
  %86 = load i32, ptr %15, align 4
  ret i32 %86
}