; Function Attrs: mustprogress nofree norecurse nosync nounwind willreturn memory(argmem: write) uwtable
define range(i32 0, 2) i32 @ossl_quic_fifd_init(ptr noundef writeonly captures(none) %0, ptr noundef %1, ptr noundef %2, ptr noundef %3, ptr noundef %4, ptr noundef %5, ptr noundef %6, ptr noundef %7, ptr noundef %8, ptr noundef %9, ptr noundef %10, ptr noundef %11, ptr noundef %12, ptr noundef %13) local_unnamed_addr #0 {
  %15 = icmp eq ptr %1, null
  %16 = icmp eq ptr %2, null
  %or.cond = or i1 %15, %16
  %17 = icmp eq ptr %3, null
  %or.cond3 = or i1 %or.cond, %17
  %18 = icmp eq ptr %4, null
  %or.cond5 = or i1 %or.cond3, %18
  %19 = icmp eq ptr %6, null
  %or.cond7 = or i1 %or.cond5, %19
  br i1 %or.cond7, label %33, label %20

20:                                               ; preds = %14
  store ptr %1, ptr %0, align 8, !tbaa !3
  %21 = getelementptr inbounds nuw i8, ptr %0, i64 8
  store ptr %2, ptr %21, align 8, !tbaa !11
  %22 = getelementptr inbounds nuw i8, ptr %0, i64 16
  store ptr %3, ptr %22, align 8, !tbaa !12
  %23 = getelementptr inbounds nuw i8, ptr %0, i64 24
  store ptr %4, ptr %23, align 8, !tbaa !13
  %24 = getelementptr inbounds nuw i8, ptr %0, i64 32
  store ptr %5, ptr %24, align 8, !tbaa !14
  %25 = getelementptr inbounds nuw i8, ptr %0, i64 40
  store ptr %6, ptr %25, align 8, !tbaa !15
  %26 = getelementptr inbounds nuw i8, ptr %0, i64 48
  store ptr %7, ptr %26, align 8, !tbaa !16
  %27 = getelementptr inbounds nuw i8, ptr %0, i64 56
  store ptr %8, ptr %27, align 8, !tbaa !17
  %28 = getelementptr inbounds nuw i8, ptr %0, i64 64
  store ptr %9, ptr %28, align 8, !tbaa !18
  %29 = getelementptr inbounds nuw i8, ptr %0, i64 72
  store ptr %10, ptr %29, align 8, !tbaa !19
  %30 = getelementptr inbounds nuw i8, ptr %0, i64 80
  store ptr %11, ptr %30, align 8, !tbaa !20
  %31 = getelementptr inbounds nuw i8, ptr %0, i64 88
  store ptr %12, ptr %31, align 8, !tbaa !21
  %32 = getelementptr inbounds nuw i8, ptr %0, i64 96
  store ptr %13, ptr %32, align 8, !tbaa !22
  br label %33

33:                                               ; preds = %14, %20
  %.0 = phi i32 [ 1, %20 ], [ 0, %14 ]
  ret i32 %.0
}